target datalayout = "e-m:e-p270:32:32-p271:32:32-p272:64:64-i64:64-i128:128-f80:128-n8:16:32:64-S128"
target triple = "x86_64-pc-linux-gnu"

@_ZL12_path_buffer = internal global [4097 x i8] zeroinitializer, align 16
@_ZL18chunk_file_jfr_ext = internal constant [5 x i8] c".jfr\00", align 1
@_ZL12emergency_fd = internal global i32 -1, align 4
@.str.21 = private unnamed_addr constant [9 x i8] c"%s%s%s%s\00", align 1

; Function Attrs: mustprogress nounwind uwtable
define internal void @_ZL20iso8601_to_date_timePc(ptr noundef %0) #1 {
  %2 = alloca ptr, align 8
  %3 = alloca i64, align 8
  store ptr %0, ptr %2, align 8
  store i64 0, ptr %3, align 8
  br label %4

4:                                                ; preds = %18, %1
  %5 = load i64, ptr %3, align 8
  %6 = icmp ult i64 %5, 19
  br i1 %6, label %7, label %21

7:                                                ; preds = %4
  %8 = load ptr, ptr %2, align 8
  %9 = load i64, ptr %3, align 8
  %10 = getelementptr inbounds i8, ptr %8, i64 %9
  %11 = load i8, ptr %10, align 1
  %12 = sext i8 %11 to i32
  switch i32 %12, label %17 [
    i32 84, label %13
    i32 45, label %13
    i32 58, label %13
  ]

13:                                               ; preds = %7, %7, %7
  %14 = load ptr, ptr %2, align 8
  %15 = load i64, ptr %3, align 8
  %16 = getelementptr inbounds i8, ptr %14, i64 %15
  store i8 95, ptr %16, align 1
  br label %17

17:                                               ; preds = %13, %7
  br label %18

18:                                               ; preds = %17
  %19 = load i64, ptr %3, align 8
  %20 = add i64 %19, 1
  store i64 %20, ptr %3, align 8
  br label %4, !llvm.loop !11

21:                                               ; preds = %4
  ret void
}

; Function Attrs: mustprogress nounwind uwtable
define internal void @_ZL9date_timePcm(ptr noundef %0, i64 noundef %1) #1 {
  %3 = alloca ptr, align 8
  %4 = alloca i64, align 8
  store ptr %0, ptr %3, align 8
  store i64 %1, ptr %4, align 8
  %5 = load ptr, ptr %3, align 8
  %6 = load i64, ptr %4, align 8
  %7 = call noundef ptr @_ZN2os12iso8601_timeEPcmb(ptr noundef %5, i64 noundef %6, i1 noundef zeroext false)
  %8 = load ptr, ptr %3, align 8
  %9 = getelementptr inbounds i8, ptr %8, i64 19
  store i8 0, ptr %9, align 1
  %10 = load ptr, ptr %3, align 8
  call void @_ZL20iso8601_to_date_timePc(ptr noundef %10)
  ret void
}

; Function Attrs: mustprogress nounwind uwtable
define internal noundef zeroext i1 @_ZL27is_emergency_dump_file_openv() #1 {
  %1 = load i32, ptr @_ZL12emergency_fd, align 4
  %2 = icmp ne i32 %1, -1
  ret i1 %2
}

; Function Attrs: mustprogress nounwind uwtable
define internal noundef ptr @_ZL27create_emergency_chunk_pathPKc(ptr noundef %0) #1 {
  %2 = alloca ptr, align 8
  %3 = alloca i64, align 8
  %4 = alloca [32 x i8], align 16
  %5 = alloca i32, align 4
  store ptr %0, ptr %2, align 8
  %6 = load ptr, ptr %2, align 8
  %7 = call i64 @strlen(ptr noundef %6) #10
  store i64 %7, ptr %3, align 8
  call void @llvm.memset.p0.i64(ptr align 16 %4, i8 0, i64 32, i1 false)
  %8 = getelementptr inbounds [32 x i8], ptr %4, i64 0, i64 0
  call void @_ZL9date_timePcm(ptr noundef %8, i64 noundef 32)
  %9 = load ptr, ptr %2, align 8
  %10 = call noundef ptr @_ZN2os14file_separatorEv()
  %11 = getelementptr inbounds [32 x i8], ptr %4, i64 0, i64 0
  %12 = call i32 (ptr, i64, ptr, ...) @jio_snprintf(ptr noundef @_ZL12_path_buffer, i64 noundef 4097, ptr noundef @.str.21, ptr noundef %9, ptr noundef %10, ptr noundef %11, ptr noundef @_ZL18chunk_file_jfr_ext)
  store i32 %12, ptr %5, align 4
  %13 = load i32, ptr %5, align 4
  %14 = icmp eq i32 %13, -1
  %15 = select i1 %14, ptr null, ptr @_ZL12_path_buffer
  ret ptr %15
}

; Function Attrs: mustprogress nounwind uwtable
define internal void @_ZL25close_emergency_dump_filev() #1 {
  %1 = call noundef zeroext i1 @_ZL27is_emergency_dump_file_openv()
  br i1 %1, label %2, label %5

2:                                                ; preds = %0
  %3 = load i32, ptr @_ZL12emergency_fd, align 4
  %4 = call i32 @close(i32 noundef %3)
  br label %5

5:                                                ; preds = %2, %0
  ret void
}

; Function Attrs: mustprogress nounwind uwtable
define hidden noundef ptr @_ZN16JfrEmergencyDump10chunk_pathEPKc(ptr noundef %0) #1 align 2 {
  %2 = alloca ptr, align 8
  %3 = alloca ptr, align 8
  store ptr %0, ptr %3, align 8
  %4 = load ptr, ptr %3, align 8
  %5 = icmp eq ptr %4, null
  br i1 %5, label %6, label %10

6:                                                ; preds = %1
  %7 = call noundef zeroext i1 @_ZL24open_emergency_dump_filev()
  br i1 %7, label %9, label %8

8:                                                ; preds = %6
  store ptr null, ptr %2, align 8
  br label %13

9:                                                ; preds = %6
  call void @_ZL25close_emergency_dump_filev()
  store ptr @_ZL12_path_buffer, ptr %2, align 8
  br label %13

10:                                               ; preds = %1
  %11 = load ptr, ptr %3, align 8
  %12 = call noundef ptr @_ZL27create_emergency_chunk_pathPKc(ptr noundef %11)
  store ptr %12, ptr %2, align 8
  br label %13

13:                                               ; preds = %10, %9, %8
  %14 = load ptr, ptr %2, align 8
  ret ptr %14
}