; Function Attrs: mustprogress nounwind uwtable
define hidden noundef ptr @_ZN16JfrEmergencyDump10chunk_pathEPKc(ptr noundef %0) local_unnamed_addr #0 align 2 {
  %2 = alloca [32 x i8], align 16
  %3 = icmp eq ptr %0, null
  br i1 %3, label %4, label %10

4:                                                ; preds = %1
  %5 = tail call fastcc noundef zeroext i1 @_ZL24open_emergency_dump_filev()
  br i1 %5, label %6, label %_ZL25close_emergency_dump_filev.exit

6:                                                ; preds = %4
  %7 = load i32, ptr @_ZL12emergency_fd, align 4
  %.not.i = icmp eq i32 %7, -1
  br i1 %.not.i, label %_ZL25close_emergency_dump_filev.exit, label %8

8:                                                ; preds = %6
  %9 = tail call i32 @close(i32 noundef %7) #16
  br label %_ZL25close_emergency_dump_filev.exit

10:                                               ; preds = %1
  call void @llvm.lifetime.start.p0(i64 32, ptr nonnull %2)
  call void @llvm.memset.p0.i64(ptr noundef nonnull align 16 dereferenceable(32) %2, i8 0, i64 32, i1 false)
  %11 = call noundef ptr @_ZN2os12iso8601_timeEPcmb(ptr noundef nonnull %2, i64 noundef 32, i1 noundef zeroext false) #16
  %12 = getelementptr inbounds i8, ptr %2, i64 19
  store i8 0, ptr %12, align 1
  br label %13

13:                                               ; preds = %17, %10
  %.05.i.i.i = phi i64 [ 0, %10 ], [ %18, %17 ]
  %14 = getelementptr inbounds i8, ptr %2, i64 %.05.i.i.i
  %15 = load i8, ptr %14, align 1
  switch i8 %15, label %17 [
    i8 84, label %16
    i8 45, label %16
    i8 58, label %16
  ]

16:                                               ; preds = %13, %13, %13
  store i8 95, ptr %14, align 1
  br label %17

17:                                               ; preds = %16, %13
  %18 = add nuw nsw i64 %.05.i.i.i, 1
  %exitcond.not.i.i.i = icmp eq i64 %18, 19
  br i1 %exitcond.not.i.i.i, label %_ZL27create_emergency_chunk_pathPKc.exit, label %13, !llvm.loop !11

_ZL27create_emergency_chunk_pathPKc.exit:         ; preds = %17
  %19 = call noundef ptr @_ZN2os14file_separatorEv() #16
  %20 = call i32 (ptr, i64, ptr, ...) @jio_snprintf(ptr noundef nonnull @_ZL12_path_buffer, i64 noundef 4097, ptr noundef nonnull @.str.21, ptr noundef nonnull %0, ptr noundef %19, ptr noundef nonnull %2, ptr noundef nonnull @_ZL18chunk_file_jfr_ext) #16
  %21 = icmp eq i32 %20, -1
  %22 = select i1 %21, ptr null, ptr @_ZL12_path_buffer
  call void @llvm.lifetime.end.p0(i64 32, ptr nonnull %2)
  br label %_ZL25close_emergency_dump_filev.exit

_ZL25close_emergency_dump_filev.exit:             ; preds = %8, %6, %4, %_ZL27create_emergency_chunk_pathPKc.exit
  %.0 = phi ptr [ %22, %_ZL27create_emergency_chunk_pathPKc.exit ], [ null, %4 ], [ @_ZL12_path_buffer, %6 ], [ @_ZL12_path_buffer, %8 ]
  ret ptr %.0
}